ccopy_reg
_reconstructor
p0
(cexplauto.interest_model.random
RandomInterest
p1
c__builtin__
object
p2
Ntp3
Rp4
(dp5
S'bounds'
p6
cnumpy.core.multiarray
_reconstruct
p7
(cnumpy
ndarray
p8
(I0
tp9
S'b'
p10
tp11
Rp12
(I1
(I2
I3
tp13
cnumpy
dtype
p14
(S'f8'
p15
I0
I1
tp16
Rp17
(I3
S'<'
p18
NNNI-1
I-1
I0
tp19
bI01
S'333333\xd3\xbf333333\xd3?\x9a\x99\x99\x99\x99\x99\xc9\xbf\x9a\x99\x99\x99\x99\x99\xc9?333333\xe3?\x9a\x99\x99\x99\x99\x99\xe9?'
p20
tp21
bsS'expl_dims'
p22
(lp23
I4
aI5
aI6
asb.